Certificate:
    Data:
        Version: 3 (0x2)
        Serial Number:
            50:e3:b5:c6:20:6c:f7:fd:9b:fb:9e:d6:bd:16:e1:21
    Signature Algorithm: sha256WithRSAEncryption
        Issuer: CN=rasvpn
        Validity
            Not Before: Jan  7 15:55:05 2021 GMT
            Not After : Apr 12 15:55:05 2023 GMT
        Subject: CN=client
        Subject Public Key Info:
            Public Key Algorithm: rsaEncryption
                Public-Key: (2048 bit)
                Modulus:
                    00:d0:45:39:e8:7e:47:f6:8b:87:cd:5d:33:96:07:
                    41:4d:73:d6:c8:c7:6c:dd:4a:b4:12:28:9d:d7:95:
                    0f:c5:b0:cd:17:cb:a4:98:a5:34:88:07:54:1e:0d:
                    67:31:4a:61:b4:a4:88:99:71:26:70:61:6c:37:61:
                    c6:3a:cb:8e:9c:cd:b7:b7:68:22:a3:b8:76:d9:b7:
                    7b:c5:ed:96:c1:af:ee:01:94:e4:46:26:a9:0d:a3:
                    ce:36:d3:dd:57:5b:50:02:46:fa:91:21:9b:59:a2:
                    c5:ea:c8:eb:56:c5:7f:79:c9:b9:79:8f:bc:ec:60:
                    e0:07:b7:6a:ee:71:cc:98:a0:f5:c3:4f:14:a3:cf:
                    37:6e:0d:60:68:d9:4d:98:fa:2f:4d:95:3e:c9:8c:
                    5e:63:60:9b:5a:29:04:a7:ba:a2:78:fa:60:7f:8e:
                    f7:fa:2d:9f:f1:3e:9b:ca:c8:12:97:22:fb:dc:9c:
                    ce:2c:8c:20:2b:f2:18:59:a0:62:dd:a1:22:e2:6e:
                    01:bf:04:51:ca:90:14:82:78:32:7f:e8:fe:2f:96:
                    f0:5c:a6:eb:ce:d9:40:f6:eb:d5:e4:fa:22:e9:22:
                    97:60:20:32:35:04:d0:a2:fe:6f:56:bc:68:d0:9c:
                    41:71:87:24:80:71:0d:ab:14:6a:25:e6:b8:91:f5:
                    de:bb
                Exponent: 65537 (0x10001)
        X509v3 extensions:
            X509v3 Basic Constraints: 
                CA:FALSE
            X509v3 Subject Key Identifier: 
                DD:03:20:EF:B0:B2:06:E3:99:1A:2A:A9:92:C0:AD:AE:B3:7D:A9:5B
            X509v3 Authority Key Identifier: 
                keyid:15:06:44:E7:12:62:FB:19:E6:E7:EA:4C:7A:C5:D7:29:8F:61:EF:5F
                DirName:/CN=rasvpn
                serial:F0:BB:9E:0D:3E:98:75:06

            X509v3 Extended Key Usage: 
                TLS Web Client Authentication
            X509v3 Key Usage: 
                Digital Signature
    Signature Algorithm: sha256WithRSAEncryption
         95:e4:c7:81:5f:dd:c9:ce:48:f1:ca:df:3a:91:93:16:8d:cd:
         f0:a2:19:47:04:3c:f2:f7:2a:d7:23:c9:29:b7:12:10:62:e9:
         79:c7:94:c0:f4:f6:49:6f:17:1b:ca:61:52:9a:cd:b9:6e:23:
         13:09:31:36:40:d5:20:8a:74:e0:a4:5d:bf:f2:ef:f4:d1:f5:
         7d:65:db:89:50:5a:c3:09:41:08:83:b0:1f:36:da:d4:be:0f:
         5c:9b:4b:de:b8:eb:87:79:35:65:b6:20:fa:17:2a:96:bc:68:
         47:50:5b:ed:c5:e7:2c:2c:6d:b1:0a:4c:74:0c:4d:aa:8a:48:
         56:d6:48:b2:1f:f5:54:fd:6d:96:71:58:2d:91:a4:50:04:91:
         6a:c9:65:2d:77:24:98:96:60:e8:e3:96:96:4f:c5:3c:d7:a0:
         f9:31:99:19:8e:35:61:f2:90:c8:ca:37:99:be:da:21:a6:c9:
         fe:4b:64:6a:cc:bd:89:34:db:9a:f0:0c:5b:82:fa:a6:d6:d4:
         61:28:32:c2:45:17:cd:6c:fb:8c:d6:11:22:a8:ab:cd:8a:32:
         eb:1a:a1:8f:87:2b:67:da:78:b0:c6:b5:54:f5:83:81:b8:75:
         a5:87:fb:a2:a7:e5:47:af:e9:24:95:13:07:c8:56:e0:ed:1e:
         2a:b7:d8:d4
-----BEGIN CERTIFICATE-----
MIIDPzCCAiegAwIBAgIQUOO1xiBs9/2b+57WvRbhITANBgkqhkiG9w0BAQsFADAR
MQ8wDQYDVQQDDAZyYXN2cG4wHhcNMjEwMTA3MTU1NTA1WhcNMjMwNDEyMTU1NTA1
WjARMQ8wDQYDVQQDDAZjbGllbnQwggEiMA0GCSqGSIb3DQEBAQUAA4IBDwAwggEK
AoIBAQDQRTnofkf2i4fNXTOWB0FNc9bIx2zdSrQSKJ3XlQ/FsM0Xy6SYpTSIB1Qe
DWcxSmG0pIiZcSZwYWw3YcY6y46czbe3aCKjuHbZt3vF7ZbBr+4BlORGJqkNo842
091XW1ACRvqRIZtZosXqyOtWxX95ybl5j7zsYOAHt2ruccyYoPXDTxSjzzduDWBo
2U2Y+i9NlT7JjF5jYJtaKQSnuqJ4+mB/jvf6LZ/xPpvKyBKXIvvcnM4sjCAr8hhZ
oGLdoSLibgG/BFHKkBSCeDJ/6P4vlvBcpuvO2UD269Xk+iLpIpdgIDI1BNCi/m9W
vGjQnEFxhySAcQ2rFGol5riR9d67AgMBAAGjgZIwgY8wCQYDVR0TBAIwADAdBgNV
HQ4EFgQU3QMg77CyBuOZGiqpksCtrrN9qVswQQYDVR0jBDowOIAUFQZE5xJi+xnm
5+pMesXXKY9h71+hFaQTMBExDzANBgNVBAMMBnJhc3ZwboIJAPC7ng0+mHUGMBMG
A1UdJQQMMAoGCCsGAQUFBwMCMAsGA1UdDwQEAwIHgDANBgkqhkiG9w0BAQsFAAOC
AQEAleTHgV/dyc5I8crfOpGTFo3N8KIZRwQ88vcq1yPJKbcSEGLpeceUwPT2SW8X
G8phUprNuW4jEwkxNkDVIIp04KRdv/Lv9NH1fWXbiVBawwlBCIOwHzba1L4PXJtL
3rjrh3k1ZbYg+hcqlrxoR1Bb7cXnLCxtsQpMdAxNqopIVtZIsh/1VP1tlnFYLZGk
UASRasllLXckmJZg6OOWlk/FPNeg+TGZGY41YfKQyMo3mb7aIabJ/ktkasy9iTTb
mvAMW4L6ptbUYSgywkUXzWz7jNYRIqirzYoy6xqhj4crZ9p4sMa1VPWDgbh1pYf7
oqflR6/pJJUTB8hW4O0eKrfY1A==
-----END CERTIFICATE-----
