Certificate:
    Data:
        Version: 3 (0x2)
        Serial Number:
            9e:85:b8:0b:cb:b2:41:45:d3:8e:74:ba:09:59:02:05
    Signature Algorithm: sha256WithRSAEncryption
        Issuer: CN=rasvpn
        Validity
            Not Before: Jan  7 13:54:22 2021 GMT
            Not After : Apr 12 13:54:22 2023 GMT
        Subject: CN=client
        Subject Public Key Info:
            Public Key Algorithm: rsaEncryption
                Public-Key: (2048 bit)
                Modulus:
                    00:b5:77:af:30:c7:ef:b6:f7:14:5b:57:f5:6d:10:
                    d1:b2:c1:c2:8e:ca:e5:b3:8d:65:1f:69:ab:1c:09:
                    46:48:50:ec:6c:be:0a:3f:f5:ec:c5:77:c1:2e:0e:
                    fa:9b:25:b7:23:ae:e5:43:c0:9c:65:23:af:2e:1d:
                    c3:b9:7c:c7:25:be:28:dd:e0:db:f9:9a:eb:9d:3e:
                    e6:c0:ab:e3:27:de:37:f8:39:64:5b:e9:6c:2e:08:
                    b0:ae:6f:56:0b:34:19:9a:6c:f8:85:35:d5:f2:9f:
                    05:6e:49:bd:c6:a6:1f:a4:cf:37:47:f9:30:33:b6:
                    00:d4:8b:a0:23:05:59:67:b8:47:df:d4:e3:de:77:
                    6d:ed:26:65:4e:7e:3e:f6:cc:4b:28:fd:eb:ca:ca:
                    cb:5f:a5:b7:8b:67:72:be:af:18:f9:cf:96:44:be:
                    09:04:98:4d:0c:7f:e0:4f:49:11:f7:0c:0f:84:b7:
                    8c:a7:a1:c5:6a:43:4f:02:fc:10:0b:2a:be:9b:77:
                    6a:df:3f:9d:8b:9c:80:17:c4:70:4f:29:d0:3e:c1:
                    91:30:46:02:db:50:3e:f2:58:66:e6:7a:f9:d3:c5:
                    76:b5:95:f1:a5:ee:cf:01:5d:40:5d:95:c1:43:99:
                    31:ac:20:15:7e:b9:6b:13:79:c6:83:10:db:ef:31:
                    0b:25
                Exponent: 65537 (0x10001)
        X509v3 extensions:
            X509v3 Basic Constraints: 
                CA:FALSE
            X509v3 Subject Key Identifier: 
                7D:4F:E9:83:CF:C8:68:3E:AD:C0:02:2D:16:32:37:EE:E6:41:30:E1
            X509v3 Authority Key Identifier: 
                keyid:4A:4F:C1:C9:F3:ED:AD:9B:A4:6A:38:1D:9A:95:08:60:47:DB:62:24
                DirName:/CN=rasvpn
                serial:ED:57:B2:E0:C8:D9:82:CD

            X509v3 Extended Key Usage: 
                TLS Web Client Authentication
            X509v3 Key Usage: 
                Digital Signature
    Signature Algorithm: sha256WithRSAEncryption
         5e:55:d0:93:9d:ec:28:74:d6:60:e1:a7:1e:69:a8:53:7a:e0:
         9b:4c:a1:d6:df:db:3a:b9:d4:83:31:d8:24:42:41:c0:f8:f5:
         2e:28:34:e6:2f:d5:45:09:ff:ab:d2:8d:2a:59:63:41:b3:25:
         f5:ac:48:14:eb:f4:ab:d9:aa:4d:6c:b2:ea:39:7a:ab:3b:2e:
         08:6d:64:7a:2e:24:01:5b:fa:fc:90:c9:54:dd:22:78:86:d2:
         1b:4b:05:fc:a4:4d:1f:05:96:0a:cd:89:ef:62:cd:7d:9f:5e:
         3c:4f:15:f6:89:56:e0:64:7c:96:c7:42:b1:39:8b:fc:21:4b:
         56:78:1b:2c:98:01:7b:4f:2c:41:19:c5:f4:70:8f:f0:5a:1a:
         9d:5e:89:a7:6f:1d:60:63:8c:ee:eb:d4:d3:55:97:88:48:27:
         df:f1:ec:50:38:52:52:fb:d1:be:59:4f:10:5f:7f:28:ff:d5:
         88:95:23:ee:84:a9:36:c1:96:0b:24:a3:f5:21:6a:9a:d0:f9:
         36:cd:23:59:80:e4:f1:eb:ab:c0:e5:d1:91:ff:58:cd:88:a5:
         01:8e:7e:10:b5:70:2d:f5:97:26:80:2e:42:0f:7a:43:0a:be:
         78:4e:23:21:f4:f9:57:3b:89:ae:1c:58:af:b0:10:c4:54:2b:
         b3:42:06:ae
-----BEGIN CERTIFICATE-----
MIIDQDCCAiigAwIBAgIRAJ6FuAvLskFF0450uglZAgUwDQYJKoZIhvcNAQELBQAw
ETEPMA0GA1UEAwwGcmFzdnBuMB4XDTIxMDEwNzEzNTQyMloXDTIzMDQxMjEzNTQy
MlowETEPMA0GA1UEAwwGY2xpZW50MIIBIjANBgkqhkiG9w0BAQEFAAOCAQ8AMIIB
CgKCAQEAtXevMMfvtvcUW1f1bRDRssHCjsrls41lH2mrHAlGSFDsbL4KP/XsxXfB
Lg76myW3I67lQ8CcZSOvLh3DuXzHJb4o3eDb+ZrrnT7mwKvjJ943+DlkW+lsLgiw
rm9WCzQZmmz4hTXV8p8Fbkm9xqYfpM83R/kwM7YA1IugIwVZZ7hH39Tj3ndt7SZl
Tn4+9sxLKP3rysrLX6W3i2dyvq8Y+c+WRL4JBJhNDH/gT0kR9wwPhLeMp6HFakNP
AvwQCyq+m3dq3z+di5yAF8RwTynQPsGRMEYC21A+8lhm5nr508V2tZXxpe7PAV1A
XZXBQ5kxrCAVfrlrE3nGgxDb7zELJQIDAQABo4GSMIGPMAkGA1UdEwQCMAAwHQYD
VR0OBBYEFH1P6YPPyGg+rcACLRYyN+7mQTDhMEEGA1UdIwQ6MDiAFEpPwcnz7a2b
pGo4HZqVCGBH22IkoRWkEzARMQ8wDQYDVQQDDAZyYXN2cG6CCQDtV7LgyNmCzTAT
BgNVHSUEDDAKBggrBgEFBQcDAjALBgNVHQ8EBAMCB4AwDQYJKoZIhvcNAQELBQAD
ggEBAF5V0JOd7Ch01mDhpx5pqFN64JtModbf2zq51IMx2CRCQcD49S4oNOYv1UUJ
/6vSjSpZY0GzJfWsSBTr9KvZqk1ssuo5eqs7LghtZHouJAFb+vyQyVTdIniG0htL
BfykTR8FlgrNie9izX2fXjxPFfaJVuBkfJbHQrE5i/whS1Z4GyyYAXtPLEEZxfRw
j/BaGp1eiadvHWBjjO7r1NNVl4hIJ9/x7FA4UlL70b5ZTxBffyj/1YiVI+6EqTbB
lgsko/UhaprQ+TbNI1mA5PHrq8Dl0ZH/WM2IpQGOfhC1cC31lyaALkIPekMKvnhO
IyH0+Vc7ia4cWK+wEMRUK7NCBq4=
-----END CERTIFICATE-----
